; Function Attrs: mustprogress null_pointer_is_valid sspstrong uwtable
define void @_ZN11ManufDialog18on_editingFinishedEv(ptr noundef readonly align 8 captures(none) dereferenceable_or_null(168) %0) #0 align 2 personality ptr @__gxx_personality_v0 {
  %2 = alloca %class.QString, align 8
  call void @llvm.lifetime.start.p0(i64 24, ptr nonnull %2) #20
  %3 = getelementptr inbounds nuw i8, ptr %0, i64 144
  %4 = load ptr, ptr %3, align 8
  %5 = getelementptr inbounds nuw i8, ptr %4, i64 56
  %6 = load ptr, ptr %5, align 8
  call void @_ZNK9QLineEdit4textEv(ptr dead_on_unwind nonnull writable sret(%class.QString) align 8 %2, ptr noundef align 8 dereferenceable_or_null(40) %6)
  %7 = getelementptr inbounds nuw i8, ptr %2, i64 16
  %8 = load i64, ptr %7, align 8
  %9 = icmp eq i64 %8, 0
  br i1 %9, label %32, label %16

10:                                               ; preds = %30, %29, %23, %22, %16
  %11 = landingpad { ptr, i32 }
          cleanup
  %12 = load ptr, ptr %2, align 8
  %.not.i.i.i = icmp eq ptr %12, null
  br i1 %.not.i.i.i, label %_ZN7QStringD2Ev.exit, label %_ZN17QArrayDataPointerIDsE5derefEv.exit.i.i

_ZN17QArrayDataPointerIDsE5derefEv.exit.i.i:      ; preds = %10
  %13 = atomicrmw sub ptr %12, i32 1 seq_cst, align 4
  %.not.i.i = icmp eq i32 %13, 1
  br i1 %.not.i.i, label %14, label %_ZN7QStringD2Ev.exit

14:                                               ; preds = %_ZN17QArrayDataPointerIDsE5derefEv.exit.i.i
  %15 = load ptr, ptr %2, align 8
  call void @_ZN10QArrayData10deallocateEPS_xx(ptr noundef %15, i64 noundef 2, i64 noundef 8) #20
  br label %_ZN7QStringD2Ev.exit

_ZN7QStringD2Ev.exit:                             ; preds = %10, %_ZN17QArrayDataPointerIDsE5derefEv.exit.i.i, %14
  call void @llvm.lifetime.end.p0(i64 24, ptr nonnull %2) #20
  resume { ptr, i32 } %11

16:                                               ; preds = %1
  %17 = load ptr, ptr %3, align 8
  %18 = getelementptr inbounds nuw i8, ptr %17, i64 16
  %19 = load ptr, ptr %18, align 8
  %20 = invoke noundef zeroext i1 @_ZNK15QAbstractButton9isCheckedEv(ptr noundef align 8 dereferenceable_or_null(40) %19)
          to label %21 unwind label %10

21:                                               ; preds = %16
  br i1 %20, label %22, label %23

22:                                               ; preds = %21
  invoke void @_ZN11ManufDialog12searchPrefixER7QString(ptr noundef align 8 dereferenceable_or_null(168) %0, ptr noundef nonnull align 8 dereferenceable(24) %2)
          to label %32 unwind label %10

23:                                               ; preds = %21
  %24 = load ptr, ptr %3, align 8
  %25 = getelementptr inbounds nuw i8, ptr %24, i64 24
  %26 = load ptr, ptr %25, align 8
  %27 = invoke noundef zeroext i1 @_ZNK15QAbstractButton9isCheckedEv(ptr noundef align 8 dereferenceable_or_null(40) %26)
          to label %28 unwind label %10

28:                                               ; preds = %23
  br i1 %27, label %29, label %30

29:                                               ; preds = %28
  invoke void @_ZN11ManufDialog12searchVendorER7QString(ptr noundef align 8 dereferenceable_or_null(168) %0, ptr noundef nonnull align 8 dereferenceable(24) %2)
          to label %32 unwind label %10

30:                                               ; preds = %28
  invoke void (ptr, i32, ptr, i64, ptr, ptr, ...) @ws_log_fatal_full(ptr noundef nonnull @.str.11, i32 noundef 7, ptr noundef nonnull @.str.12, i64 noundef 168, ptr noundef nonnull @__func__._ZN11ManufDialog18on_editingFinishedEv, ptr noundef nonnull @.str.13) #22
          to label %31 unwind label %10

31:                                               ; preds = %30
  unreachable

32:                                               ; preds = %22, %29, %1
  %33 = load ptr, ptr %2, align 8
  %.not.i.i.i2 = icmp eq ptr %33, null
  br i1 %.not.i.i.i2, label %_ZN7QStringD2Ev.exit5, label %_ZN17QArrayDataPointerIDsE5derefEv.exit.i.i3

_ZN17QArrayDataPointerIDsE5derefEv.exit.i.i3:     ; preds = %32
  %34 = atomicrmw sub ptr %33, i32 1 seq_cst, align 4
  %.not.i.i4 = icmp eq i32 %34, 1
  br i1 %.not.i.i4, label %35, label %_ZN7QStringD2Ev.exit5

35:                                               ; preds = %_ZN17QArrayDataPointerIDsE5derefEv.exit.i.i3
  %36 = load ptr, ptr %2, align 8
  call void @_ZN10QArrayData10deallocateEPS_xx(ptr noundef %36, i64 noundef 2, i64 noundef 8) #20
  br label %_ZN7QStringD2Ev.exit5

_ZN7QStringD2Ev.exit5:                            ; preds = %32, %_ZN17QArrayDataPointerIDsE5derefEv.exit.i.i3, %35
  call void @llvm.lifetime.end.p0(i64 24, ptr nonnull %2) #20
  ret void
}